target datalayout = "e-m:e-p270:32:32-p271:32:32-p272:64:64-i64:64-i128:128-f80:128-n8:16:32:64-S128"
target triple = "x86_64-pc-linux-gnu"

%struct.object_id = type { [32 x i8], i32 }
%struct.commit = type { %struct.object, i64, ptr, ptr, i32 }
%struct.object = type { i32, %struct.object_id }

@.str.29 = private unnamed_addr constant [5 x i8] c"HEAD\00", align 1
@.str.46 = private unnamed_addr constant [1 x i8] zeroinitializer, align 1
@git_gettext_enabled = external global i32, align 4
@.str.254 = private unnamed_addr constant [21 x i8] c"could not parse HEAD\00", align 1
@.str.263 = private unnamed_addr constant [25 x i8] c"HEAD %s is not a commit!\00", align 1
@.str.264 = private unnamed_addr constant [28 x i8] c"could not parse HEAD commit\00", align 1

; Function Attrs: inlinehint nounwind uwtable
define internal i32 @repo_parse_commit(ptr noundef %0, ptr noundef %1) #1 {
  %3 = alloca ptr, align 8
  %4 = alloca ptr, align 8
  store ptr %0, ptr %3, align 8, !tbaa !9
  store ptr %1, ptr %4, align 8, !tbaa !82
  %5 = load ptr, ptr %3, align 8, !tbaa !9
  %6 = load ptr, ptr %4, align 8, !tbaa !82
  %7 = call i32 @repo_parse_commit_gently(ptr noundef %5, ptr noundef %6, i32 noundef 0)
  ret i32 %7
}

; Function Attrs: inlinehint nounwind uwtable
define internal i32 @oideq(ptr noundef %0, ptr noundef %1) #1 {
  %3 = alloca ptr, align 8
  %4 = alloca ptr, align 8
  store ptr %0, ptr %3, align 8, !tbaa !84
  store ptr %1, ptr %4, align 8, !tbaa !84
  %5 = load ptr, ptr %3, align 8, !tbaa !84
  %6 = getelementptr inbounds nuw %struct.object_id, ptr %5, i32 0, i32 0
  %7 = getelementptr inbounds [32 x i8], ptr %6, i64 0, i64 0
  %8 = load ptr, ptr %4, align 8, !tbaa !84
  %9 = getelementptr inbounds nuw %struct.object_id, ptr %8, i32 0, i32 0
  %10 = getelementptr inbounds [32 x i8], ptr %9, i64 0, i64 0
  %11 = call i32 @memcmp(ptr noundef %7, ptr noundef %10, i64 noundef 32) #12
  %12 = icmp ne i32 %11, 0
  %13 = xor i1 %12, true
  %14 = zext i1 %13 to i32
  ret i32 %14
}

; Function Attrs: inlinehint nounwind uwtable
define internal i32 @const_error() #1 {
  ret i32 -1
}

; Function Attrs: inlinehint nounwind uwtable
define internal ptr @_(ptr noundef %0) #1 {
  %2 = alloca ptr, align 8
  %3 = alloca ptr, align 8
  store ptr %0, ptr %3, align 8, !tbaa !4
  %4 = load ptr, ptr %3, align 8, !tbaa !4
  %5 = load i8, ptr %4, align 1, !tbaa !30
  %6 = icmp ne i8 %5, 0
  br i1 %6, label %8, label %7

7:                                                ; preds = %1
  store ptr @.str.46, ptr %2, align 8
  br label %16

8:                                                ; preds = %1
  %9 = load i32, ptr @git_gettext_enabled, align 4, !tbaa !29
  %10 = icmp ne i32 %9, 0
  br i1 %10, label %13, label %11

11:                                               ; preds = %8
  %12 = load ptr, ptr %3, align 8, !tbaa !4
  store ptr %12, ptr %2, align 8
  br label %16

13:                                               ; preds = %8
  %14 = load ptr, ptr %3, align 8, !tbaa !4
  %15 = call ptr @dcgettext(ptr noundef null, ptr noundef %14, i32 noundef 5) #11
  store ptr %15, ptr %2, align 8
  br label %16

16:                                               ; preds = %13, %11, %7
  %17 = load ptr, ptr %2, align 8
  ret ptr %17
}

; Function Attrs: nounwind uwtable
define internal i32 @parse_head(ptr noundef %0, ptr noundef %1) #0 {
  %3 = alloca i32, align 4
  %4 = alloca ptr, align 8
  %5 = alloca ptr, align 8
  %6 = alloca ptr, align 8
  %7 = alloca %struct.object_id, align 4
  %8 = alloca i32, align 4
  store ptr %0, ptr %4, align 8, !tbaa !9
  store ptr %1, ptr %5, align 8, !tbaa !338
  call void @llvm.lifetime.start.p0(i64 8, ptr %6) #11
  call void @llvm.lifetime.start.p0(i64 36, ptr %7) #11
  %9 = load ptr, ptr %4, align 8, !tbaa !9
  %10 = call i32 @repo_get_oid(ptr noundef %9, ptr noundef @.str.29, ptr noundef %7)
  %11 = icmp ne i32 %10, 0
  br i1 %11, label %12, label %13

12:                                               ; preds = %2
  store ptr null, ptr %6, align 8, !tbaa !82
  br label %41

13:                                               ; preds = %2
  %14 = load ptr, ptr %4, align 8, !tbaa !9
  %15 = call ptr @lookup_commit_reference(ptr noundef %14, ptr noundef %7)
  store ptr %15, ptr %6, align 8, !tbaa !82
  %16 = load ptr, ptr %6, align 8, !tbaa !82
  %17 = icmp ne ptr %16, null
  br i1 %17, label %22, label %18

18:                                               ; preds = %13
  %19 = call ptr @_(ptr noundef @.str.254)
  %20 = call i32 (ptr, ...) @error(ptr noundef %19)
  %21 = call i32 @const_error()
  store i32 %21, ptr %3, align 4
  store i32 1, ptr %8, align 4
  br label %44

22:                                               ; preds = %13
  %23 = load ptr, ptr %6, align 8, !tbaa !82
  %24 = getelementptr inbounds nuw %struct.commit, ptr %23, i32 0, i32 0
  %25 = getelementptr inbounds nuw %struct.object, ptr %24, i32 0, i32 1
  %26 = call i32 @oideq(ptr noundef %7, ptr noundef %25)
  %27 = icmp ne i32 %26, 0
  br i1 %27, label %31, label %28

28:                                               ; preds = %22
  %29 = call ptr @_(ptr noundef @.str.263)
  %30 = call ptr @oid_to_hex(ptr noundef %7)
  call void (ptr, ...) @warning(ptr noundef %29, ptr noundef %30)
  br label %31

31:                                               ; preds = %28, %22
  %32 = load ptr, ptr %4, align 8, !tbaa !9
  %33 = load ptr, ptr %6, align 8, !tbaa !82
  %34 = call i32 @repo_parse_commit(ptr noundef %32, ptr noundef %33)
  %35 = icmp ne i32 %34, 0
  br i1 %35, label %36, label %40

36:                                               ; preds = %31
  %37 = call ptr @_(ptr noundef @.str.264)
  %38 = call i32 (ptr, ...) @error(ptr noundef %37)
  %39 = call i32 @const_error()
  store i32 %39, ptr %3, align 4
  store i32 1, ptr %8, align 4
  br label %44

40:                                               ; preds = %31
  br label %41

41:                                               ; preds = %40, %12
  %42 = load ptr, ptr %6, align 8, !tbaa !82
  %43 = load ptr, ptr %5, align 8, !tbaa !338
  store ptr %42, ptr %43, align 8, !tbaa !82
  store i32 0, ptr %3, align 4
  store i32 1, ptr %8, align 4
  br label %44

44:                                               ; preds = %41, %36, %18
  call void @llvm.lifetime.end.p0(i64 36, ptr %7) #11
  call void @llvm.lifetime.end.p0(i64 8, ptr %6) #11
  %45 = load i32, ptr %3, align 4
  ret i32 %45
}