; Function Attrs: nounwind uwtable
define internal fastcc range(i32 -1, 1) i32 @parse_head(ptr noundef %0, ptr noundef nonnull writeonly captures(none) %1) unnamed_addr #0 {
  %3 = alloca %struct.object_id, align 4
  call void @llvm.lifetime.start.p0(i64 36, ptr nonnull %3) #20
  %4 = call i32 @repo_get_oid(ptr noundef %0, ptr noundef nonnull @.str.29, ptr noundef nonnull %3) #20
  %.not = icmp eq i32 %4, 0
  br i1 %.not, label %5, label %26

5:                                                ; preds = %2
  %6 = call ptr @lookup_commit_reference(ptr noundef %0, ptr noundef nonnull %3) #20
  %.not10 = icmp eq ptr %6, null
  br i1 %.not10, label %7, label %12

7:                                                ; preds = %5
  %8 = load i32, ptr @git_gettext_enabled, align 4, !tbaa !21
  %.not4.i = icmp eq i32 %8, 0
  br i1 %.not4.i, label %_.exit, label %9

9:                                                ; preds = %7
  %10 = call ptr @dcgettext(ptr noundef null, ptr noundef nonnull @.str.254, i32 noundef 5) #20
  br label %_.exit

_.exit:                                           ; preds = %7, %9
  %.0.i = phi ptr [ %10, %9 ], [ @.str.254, %7 ]
  %11 = call i32 (ptr, ...) @error(ptr noundef %.0.i) #20
  br label %27

12:                                               ; preds = %5
  %13 = getelementptr inbounds nuw i8, ptr %6, i64 4
  %bcmp.i = call i32 @bcmp(ptr noundef nonnull readonly dereferenceable(32) %3, ptr noundef nonnull readonly dereferenceable(32) %13, i64 32)
  %.not.i.not = icmp eq i32 %bcmp.i, 0
  br i1 %.not.i.not, label %19, label %14

14:                                               ; preds = %12
  %15 = load i32, ptr @git_gettext_enabled, align 4, !tbaa !21
  %.not4.i13 = icmp eq i32 %15, 0
  br i1 %.not4.i13, label %_.exit15, label %16

16:                                               ; preds = %14
  %17 = call ptr @dcgettext(ptr noundef null, ptr noundef nonnull @.str.263, i32 noundef 5) #20
  br label %_.exit15

_.exit15:                                         ; preds = %14, %16
  %.0.i14 = phi ptr [ %17, %16 ], [ @.str.263, %14 ]
  %18 = call ptr @oid_to_hex(ptr noundef nonnull %3) #20
  call void (ptr, ...) @warning(ptr noundef %.0.i14, ptr noundef %18) #20
  br label %19

19:                                               ; preds = %_.exit15, %12
  %20 = call i32 @repo_parse_commit_gently(ptr noundef %0, ptr noundef nonnull %6, i32 noundef 0) #20
  %.not12 = icmp eq i32 %20, 0
  br i1 %.not12, label %26, label %21

21:                                               ; preds = %19
  %22 = load i32, ptr @git_gettext_enabled, align 4, !tbaa !21
  %.not4.i16 = icmp eq i32 %22, 0
  br i1 %.not4.i16, label %_.exit18, label %23

23:                                               ; preds = %21
  %24 = call ptr @dcgettext(ptr noundef null, ptr noundef nonnull @.str.264, i32 noundef 5) #20
  br label %_.exit18

_.exit18:                                         ; preds = %21, %23
  %.0.i17 = phi ptr [ %24, %23 ], [ @.str.264, %21 ]
  %25 = call i32 (ptr, ...) @error(ptr noundef %.0.i17) #20
  br label %27

26:                                               ; preds = %2, %19
  %.0 = phi ptr [ %6, %19 ], [ null, %2 ]
  store ptr %.0, ptr %1, align 8, !tbaa !180
  br label %27

27:                                               ; preds = %26, %_.exit18, %_.exit
  %.08 = phi i32 [ 0, %26 ], [ -1, %_.exit18 ], [ -1, %_.exit ]
  call void @llvm.lifetime.end.p0(i64 36, ptr nonnull %3) #20
  ret i32 %.08
}